; Function Attrs: mustprogress uwtable
define void @_ZN19PacketRangeGroupBox20processButtonToggledEb14packet_range_e(ptr noundef nonnull align 8 dereferenceable(60) %0, i1 noundef zeroext %1, i32 noundef %2) local_unnamed_addr #0 align 2 {
  br i1 %1, label %4, label %8

4:                                                ; preds = %3
  %5 = getelementptr inbounds i8, ptr %0, i64 48
  %6 = load ptr, ptr %5, align 8
  %.not = icmp eq ptr %6, null
  br i1 %.not, label %8, label %7

7:                                                ; preds = %4
  store i32 %2, ptr %6, align 8
  br label %8

8:                                                ; preds = %7, %4, %3
  tail call void @_ZN19PacketRangeGroupBox12updateCountsEv(ptr noundef nonnull align 8 dereferenceable(60) %0)
  ret void
}